; Function Attrs: nounwind uwtable
define hidden void @zif_realpath_cache_size(ptr nocapture noundef readonly %0, ptr nocapture noundef writeonly %1) local_unnamed_addr #1 {
  %3 = getelementptr inbounds i8, ptr %0, i64 44
  %4 = load i32, ptr %3, align 4
  %.not = icmp eq i32 %4, 0
  br i1 %.not, label %6, label %5

5:                                                ; preds = %2
  tail call void @zend_wrong_parameters_none_error() #16
  br label %9

6:                                                ; preds = %2
  %7 = tail call i64 @realpath_cache_size() #16
  store i64 %7, ptr %1, align 8
  %8 = getelementptr inbounds i8, ptr %1, i64 8
  store i32 4, ptr %8, align 8
  br label %9

9:                                                ; preds = %6, %5
  ret void
}